target datalayout = "e-m:e-p270:32:32-p271:32:32-p272:64:64-i64:64-i128:128-f80:128-n8:16:32:64-S128"
target triple = "x86_64-pc-linux-gnu"

%"class.std::__shared_count" = type { ptr }
%"class.OpenImageIO::v3_1_0::basic_string_view" = type { ptr, i64 }
%"class.std::shared_ptr.20" = type { %"class.std::__shared_ptr.21" }
%"class.std::__shared_ptr.21" = type { ptr, %"class.std::__shared_count" }
%"class.OpenImageIO::v3_1_0::ustring" = type { ptr }

; Function Attrs: mustprogress nounwind uwtable
define linkonce_odr hidden noundef i64 @_ZNK11OpenImageIO6v3_1_017basic_string_viewIcSt11char_traitsIcEE4sizeEv(ptr noundef nonnull align 8 dereferenceable(16) %0) #6 comdat align 2 {
  %2 = alloca ptr, align 8
  store ptr %0, ptr %2, align 8, !tbaa !10
  %3 = load ptr, ptr %2, align 8
  %4 = getelementptr inbounds nuw %"class.OpenImageIO::v3_1_0::basic_string_view", ptr %3, i32 0, i32 1
  %5 = load i64, ptr %4, align 8, !tbaa !17
  ret i64 %5
}

; Function Attrs: mustprogress nounwind uwtable
define linkonce_odr hidden noundef ptr @_ZNK11OpenImageIO6v3_1_017basic_string_viewIcSt11char_traitsIcEE4dataEv(ptr noundef nonnull align 8 dereferenceable(16) %0) #6 comdat align 2 {
  %2 = alloca ptr, align 8
  store ptr %0, ptr %2, align 8, !tbaa !10
  %3 = load ptr, ptr %2, align 8
  %4 = getelementptr inbounds nuw %"class.OpenImageIO::v3_1_0::basic_string_view", ptr %3, i32 0, i32 0
  %5 = load ptr, ptr %4, align 8, !tbaa !14
  ret ptr %5
}

; Function Attrs: mustprogress uwtable
define linkonce_odr void @_ZN11OpenImageIO6v3_1_07ustringC2ENS0_17basic_string_viewIcSt11char_traitsIcEEE(ptr noundef nonnull align 8 dereferenceable(8) %0, ptr noundef %1) unnamed_addr #7 comdat align 2 {
  %3 = alloca ptr, align 8
  %4 = alloca ptr, align 8
  %5 = alloca %"class.OpenImageIO::v3_1_0::basic_string_view", align 8
  store ptr %0, ptr %3, align 8, !tbaa !252
  store ptr %1, ptr %4, align 8, !tbaa !10
  %6 = load ptr, ptr %3, align 8
  %7 = call noundef ptr @_ZNK11OpenImageIO6v3_1_017basic_string_viewIcSt11char_traitsIcEE4dataEv(ptr noundef nonnull align 8 dereferenceable(16) %1) #5
  %8 = icmp ne ptr %7, null
  br i1 %8, label %9, label %11

9:                                                ; preds = %2
  call void @_ZN11OpenImageIO6v3_1_017basic_string_viewIcSt11char_traitsIcEEC2ERKS4_(ptr noundef nonnull align 8 dereferenceable(16) %5, ptr noundef nonnull align 8 dereferenceable(16) %1)
  %10 = call noundef ptr @_ZN11OpenImageIO6v3_1_07ustring11make_uniqueENS0_17basic_string_viewIcSt11char_traitsIcEEE(ptr noundef %5)
  br label %12

11:                                               ; preds = %2
  br label %12

12:                                               ; preds = %11, %9
  %13 = phi ptr [ %10, %9 ], [ null, %11 ]
  %14 = getelementptr inbounds nuw %"class.OpenImageIO::v3_1_0::ustring", ptr %6, i32 0, i32 0
  store ptr %13, ptr %14, align 8, !tbaa !254
  ret void
}

; Function Attrs: mustprogress nounwind uwtable
define linkonce_odr hidden void @_ZN11OpenImageIO6v3_1_017basic_string_viewIcSt11char_traitsIcEEC2ERKS4_(ptr noundef nonnull align 8 dereferenceable(16) %0, ptr noundef nonnull align 8 dereferenceable(16) %1) unnamed_addr #6 comdat align 2 {
  %3 = alloca ptr, align 8
  %4 = alloca ptr, align 8
  store ptr %0, ptr %3, align 8, !tbaa !10
  store ptr %1, ptr %4, align 8, !tbaa !10
  %5 = load ptr, ptr %3, align 8
  %6 = getelementptr inbounds nuw %"class.OpenImageIO::v3_1_0::basic_string_view", ptr %5, i32 0, i32 0
  %7 = load ptr, ptr %4, align 8, !tbaa !10
  %8 = call noundef ptr @_ZNK11OpenImageIO6v3_1_017basic_string_viewIcSt11char_traitsIcEE4dataEv(ptr noundef nonnull align 8 dereferenceable(16) %7) #5
  store ptr %8, ptr %6, align 8, !tbaa !14
  %9 = getelementptr inbounds nuw %"class.OpenImageIO::v3_1_0::basic_string_view", ptr %5, i32 0, i32 1
  %10 = load ptr, ptr %4, align 8, !tbaa !10
  %11 = call noundef i64 @_ZNK11OpenImageIO6v3_1_017basic_string_viewIcSt11char_traitsIcEE4sizeEv(ptr noundef nonnull align 8 dereferenceable(16) %10) #5
  store i64 %11, ptr %9, align 8, !tbaa !17
  ret void
}

; Function Attrs: mustprogress uwtable
define void @_ZNK11OpenImageIO6v3_1_011ColorConfig22createDisplayTransformENS0_17basic_string_viewIcSt11char_traitsIcEEES5_S5_S5_bS5_S5_(ptr dead_on_unwind noalias writable sret(%"class.std::shared_ptr.20") align 8 %0, ptr noundef nonnull align 8 dereferenceable(8) %1, ptr noundef %2, ptr noundef %3, ptr noundef %4, ptr noundef %5, i1 noundef zeroext %6, ptr noundef %7, ptr noundef %8) #7 align 2 {
  %10 = alloca ptr, align 8
  %11 = alloca ptr, align 8
  %12 = alloca ptr, align 8
  %13 = alloca ptr, align 8
  %14 = alloca ptr, align 8
  %15 = alloca ptr, align 8
  %16 = alloca i8, align 1
  %17 = alloca ptr, align 8
  %18 = alloca ptr, align 8
  %19 = alloca %"class.OpenImageIO::v3_1_0::ustring", align 8
  %20 = alloca %"class.OpenImageIO::v3_1_0::basic_string_view", align 8
  %21 = alloca %"class.OpenImageIO::v3_1_0::ustring", align 8
  %22 = alloca %"class.OpenImageIO::v3_1_0::basic_string_view", align 8
  %23 = alloca %"class.OpenImageIO::v3_1_0::ustring", align 8
  %24 = alloca %"class.OpenImageIO::v3_1_0::basic_string_view", align 8
  %25 = alloca %"class.OpenImageIO::v3_1_0::ustring", align 8
  %26 = alloca %"class.OpenImageIO::v3_1_0::basic_string_view", align 8
  %27 = alloca %"class.OpenImageIO::v3_1_0::ustring", align 8
  %28 = alloca %"class.OpenImageIO::v3_1_0::basic_string_view", align 8
  %29 = alloca %"class.OpenImageIO::v3_1_0::ustring", align 8
  %30 = alloca %"class.OpenImageIO::v3_1_0::basic_string_view", align 8
  store ptr %0, ptr %10, align 8
  store ptr %1, ptr %11, align 8, !tbaa !121
  store ptr %2, ptr %12, align 8, !tbaa !10
  store ptr %3, ptr %13, align 8, !tbaa !10
  store ptr %4, ptr %14, align 8, !tbaa !10
  store ptr %5, ptr %15, align 8, !tbaa !10
  %31 = zext i1 %6 to i8
  store i8 %31, ptr %16, align 1, !tbaa !8
  store ptr %7, ptr %17, align 8, !tbaa !10
  store ptr %8, ptr %18, align 8, !tbaa !10
  %32 = load ptr, ptr %11, align 8
  call void @_ZN11OpenImageIO6v3_1_017basic_string_viewIcSt11char_traitsIcEEC2ERKS4_(ptr noundef nonnull align 8 dereferenceable(16) %20, ptr noundef nonnull align 8 dereferenceable(16) %2)
  call void @_ZN11OpenImageIO6v3_1_07ustringC2ENS0_17basic_string_viewIcSt11char_traitsIcEEE(ptr noundef nonnull align 8 dereferenceable(8) %19, ptr noundef %20)
  call void @_ZN11OpenImageIO6v3_1_017basic_string_viewIcSt11char_traitsIcEEC2ERKS4_(ptr noundef nonnull align 8 dereferenceable(16) %22, ptr noundef nonnull align 8 dereferenceable(16) %3)
  call void @_ZN11OpenImageIO6v3_1_07ustringC2ENS0_17basic_string_viewIcSt11char_traitsIcEEE(ptr noundef nonnull align 8 dereferenceable(8) %21, ptr noundef %22)
  call void @_ZN11OpenImageIO6v3_1_017basic_string_viewIcSt11char_traitsIcEEC2ERKS4_(ptr noundef nonnull align 8 dereferenceable(16) %24, ptr noundef nonnull align 8 dereferenceable(16) %4)
  call void @_ZN11OpenImageIO6v3_1_07ustringC2ENS0_17basic_string_viewIcSt11char_traitsIcEEE(ptr noundef nonnull align 8 dereferenceable(8) %23, ptr noundef %24)
  call void @_ZN11OpenImageIO6v3_1_017basic_string_viewIcSt11char_traitsIcEEC2ERKS4_(ptr noundef nonnull align 8 dereferenceable(16) %26, ptr noundef nonnull align 8 dereferenceable(16) %5)
  call void @_ZN11OpenImageIO6v3_1_07ustringC2ENS0_17basic_string_viewIcSt11char_traitsIcEEE(ptr noundef nonnull align 8 dereferenceable(8) %25, ptr noundef %26)
  %33 = load i8, ptr %16, align 1, !tbaa !8, !range !23, !noundef !24
  %34 = trunc i8 %33 to i1
  call void @_ZN11OpenImageIO6v3_1_017basic_string_viewIcSt11char_traitsIcEEC2ERKS4_(ptr noundef nonnull align 8 dereferenceable(16) %28, ptr noundef nonnull align 8 dereferenceable(16) %7)
  call void @_ZN11OpenImageIO6v3_1_07ustringC2ENS0_17basic_string_viewIcSt11char_traitsIcEEE(ptr noundef nonnull align 8 dereferenceable(8) %27, ptr noundef %28)
  call void @_ZN11OpenImageIO6v3_1_017basic_string_viewIcSt11char_traitsIcEEC2ERKS4_(ptr noundef nonnull align 8 dereferenceable(16) %30, ptr noundef nonnull align 8 dereferenceable(16) %8)
  call void @_ZN11OpenImageIO6v3_1_07ustringC2ENS0_17basic_string_viewIcSt11char_traitsIcEEE(ptr noundef nonnull align 8 dereferenceable(8) %29, ptr noundef %30)
  %35 = getelementptr inbounds nuw %"class.OpenImageIO::v3_1_0::ustring", ptr %19, i32 0, i32 0
  %36 = load ptr, ptr %35, align 8
  %37 = getelementptr inbounds nuw %"class.OpenImageIO::v3_1_0::ustring", ptr %21, i32 0, i32 0
  %38 = load ptr, ptr %37, align 8
  %39 = getelementptr inbounds nuw %"class.OpenImageIO::v3_1_0::ustring", ptr %23, i32 0, i32 0
  %40 = load ptr, ptr %39, align 8
  %41 = getelementptr inbounds nuw %"class.OpenImageIO::v3_1_0::ustring", ptr %25, i32 0, i32 0
  %42 = load ptr, ptr %41, align 8
  %43 = getelementptr inbounds nuw %"class.OpenImageIO::v3_1_0::ustring", ptr %27, i32 0, i32 0
  %44 = load ptr, ptr %43, align 8
  %45 = ptrtoint ptr %44 to i64
  %46 = getelementptr inbounds nuw %"class.OpenImageIO::v3_1_0::ustring", ptr %29, i32 0, i32 0
  %47 = load ptr, ptr %46, align 8
  %48 = ptrtoint ptr %47 to i64
  call void @_ZNK11OpenImageIO6v3_1_011ColorConfig22createDisplayTransformENS0_7ustringES2_S2_S2_bS2_S2_(ptr dead_on_unwind writable sret(%"class.std::shared_ptr.20") align 8 %0, ptr noundef nonnull align 8 dereferenceable(8) %32, ptr %36, ptr %38, ptr %40, ptr %42, i1 noundef zeroext %34, i64 %45, i64 %48)
  ret void
}