; Function Attrs: mustprogress uwtable
define void @_ZNK11OpenImageIO6v3_1_011ColorConfig22createDisplayTransformENS0_17basic_string_viewIcSt11char_traitsIcEEES5_S5_S5_bS5_S5_(ptr dead_on_unwind noalias writable sret(%"class.std::shared_ptr.20") align 8 %0, ptr noundef nonnull readonly align 8 captures(none) dereferenceable(8) %1, ptr noundef readonly captures(none) %2, ptr noundef readonly captures(none) %3, ptr noundef readonly captures(none) %4, ptr noundef readonly captures(none) %5, i1 noundef zeroext %6, ptr noundef readonly captures(none) %7, ptr noundef readonly captures(none) %8) local_unnamed_addr #5 align 2 {
  %10 = alloca %"class.OpenImageIO::v3_1_0::basic_string_view", align 8
  %11 = alloca %"class.OpenImageIO::v3_1_0::basic_string_view", align 8
  %12 = alloca %"class.OpenImageIO::v3_1_0::basic_string_view", align 8
  %13 = alloca %"class.OpenImageIO::v3_1_0::basic_string_view", align 8
  %14 = alloca %"class.OpenImageIO::v3_1_0::basic_string_view", align 8
  %15 = alloca %"class.OpenImageIO::v3_1_0::basic_string_view", align 8
  %16 = load ptr, ptr %2, align 8, !tbaa !4
  %17 = getelementptr inbounds nuw i8, ptr %2, i64 8
  %18 = load i64, ptr %17, align 8, !tbaa !11
  call void @llvm.lifetime.start.p0(i64 16, ptr nonnull %15)
  %.not.i = icmp eq ptr %16, null
  br i1 %.not.i, label %_ZN11OpenImageIO6v3_1_07ustringC2ENS0_17basic_string_viewIcSt11char_traitsIcEEE.exit, label %19

19:                                               ; preds = %9
  store ptr %16, ptr %15, align 8, !tbaa !4
  %20 = getelementptr inbounds nuw i8, ptr %15, i64 8
  store i64 %18, ptr %20, align 8, !tbaa !11
  %21 = call noundef ptr @_ZN11OpenImageIO6v3_1_07ustring11make_uniqueENS0_17basic_string_viewIcSt11char_traitsIcEEE(ptr noundef nonnull %15)
  br label %_ZN11OpenImageIO6v3_1_07ustringC2ENS0_17basic_string_viewIcSt11char_traitsIcEEE.exit

_ZN11OpenImageIO6v3_1_07ustringC2ENS0_17basic_string_viewIcSt11char_traitsIcEEE.exit: ; preds = %9, %19
  %22 = phi ptr [ %21, %19 ], [ null, %9 ]
  call void @llvm.lifetime.end.p0(i64 16, ptr nonnull %15)
  %23 = load ptr, ptr %3, align 8, !tbaa !4
  %24 = getelementptr inbounds nuw i8, ptr %3, i64 8
  %25 = load i64, ptr %24, align 8, !tbaa !11
  call void @llvm.lifetime.start.p0(i64 16, ptr nonnull %14)
  %.not.i1 = icmp eq ptr %23, null
  br i1 %.not.i1, label %_ZN11OpenImageIO6v3_1_07ustringC2ENS0_17basic_string_viewIcSt11char_traitsIcEEE.exit2, label %26

26:                                               ; preds = %_ZN11OpenImageIO6v3_1_07ustringC2ENS0_17basic_string_viewIcSt11char_traitsIcEEE.exit
  store ptr %23, ptr %14, align 8, !tbaa !4
  %27 = getelementptr inbounds nuw i8, ptr %14, i64 8
  store i64 %25, ptr %27, align 8, !tbaa !11
  %28 = call noundef ptr @_ZN11OpenImageIO6v3_1_07ustring11make_uniqueENS0_17basic_string_viewIcSt11char_traitsIcEEE(ptr noundef nonnull %14)
  br label %_ZN11OpenImageIO6v3_1_07ustringC2ENS0_17basic_string_viewIcSt11char_traitsIcEEE.exit2

_ZN11OpenImageIO6v3_1_07ustringC2ENS0_17basic_string_viewIcSt11char_traitsIcEEE.exit2: ; preds = %_ZN11OpenImageIO6v3_1_07ustringC2ENS0_17basic_string_viewIcSt11char_traitsIcEEE.exit, %26
  %29 = phi ptr [ %28, %26 ], [ null, %_ZN11OpenImageIO6v3_1_07ustringC2ENS0_17basic_string_viewIcSt11char_traitsIcEEE.exit ]
  call void @llvm.lifetime.end.p0(i64 16, ptr nonnull %14)
  %30 = load ptr, ptr %4, align 8, !tbaa !4
  %31 = getelementptr inbounds nuw i8, ptr %4, i64 8
  %32 = load i64, ptr %31, align 8, !tbaa !11
  call void @llvm.lifetime.start.p0(i64 16, ptr nonnull %13)
  %.not.i3 = icmp eq ptr %30, null
  br i1 %.not.i3, label %_ZN11OpenImageIO6v3_1_07ustringC2ENS0_17basic_string_viewIcSt11char_traitsIcEEE.exit4, label %33

33:                                               ; preds = %_ZN11OpenImageIO6v3_1_07ustringC2ENS0_17basic_string_viewIcSt11char_traitsIcEEE.exit2
  store ptr %30, ptr %13, align 8, !tbaa !4
  %34 = getelementptr inbounds nuw i8, ptr %13, i64 8
  store i64 %32, ptr %34, align 8, !tbaa !11
  %35 = call noundef ptr @_ZN11OpenImageIO6v3_1_07ustring11make_uniqueENS0_17basic_string_viewIcSt11char_traitsIcEEE(ptr noundef nonnull %13)
  br label %_ZN11OpenImageIO6v3_1_07ustringC2ENS0_17basic_string_viewIcSt11char_traitsIcEEE.exit4

_ZN11OpenImageIO6v3_1_07ustringC2ENS0_17basic_string_viewIcSt11char_traitsIcEEE.exit4: ; preds = %_ZN11OpenImageIO6v3_1_07ustringC2ENS0_17basic_string_viewIcSt11char_traitsIcEEE.exit2, %33
  %36 = phi ptr [ %35, %33 ], [ null, %_ZN11OpenImageIO6v3_1_07ustringC2ENS0_17basic_string_viewIcSt11char_traitsIcEEE.exit2 ]
  call void @llvm.lifetime.end.p0(i64 16, ptr nonnull %13)
  %37 = load ptr, ptr %5, align 8, !tbaa !4
  %38 = getelementptr inbounds nuw i8, ptr %5, i64 8
  %39 = load i64, ptr %38, align 8, !tbaa !11
  call void @llvm.lifetime.start.p0(i64 16, ptr nonnull %12)
  %.not.i5 = icmp eq ptr %37, null
  br i1 %.not.i5, label %_ZN11OpenImageIO6v3_1_07ustringC2ENS0_17basic_string_viewIcSt11char_traitsIcEEE.exit6, label %40

40:                                               ; preds = %_ZN11OpenImageIO6v3_1_07ustringC2ENS0_17basic_string_viewIcSt11char_traitsIcEEE.exit4
  store ptr %37, ptr %12, align 8, !tbaa !4
  %41 = getelementptr inbounds nuw i8, ptr %12, i64 8
  store i64 %39, ptr %41, align 8, !tbaa !11
  %42 = call noundef ptr @_ZN11OpenImageIO6v3_1_07ustring11make_uniqueENS0_17basic_string_viewIcSt11char_traitsIcEEE(ptr noundef nonnull %12)
  br label %_ZN11OpenImageIO6v3_1_07ustringC2ENS0_17basic_string_viewIcSt11char_traitsIcEEE.exit6

_ZN11OpenImageIO6v3_1_07ustringC2ENS0_17basic_string_viewIcSt11char_traitsIcEEE.exit6: ; preds = %_ZN11OpenImageIO6v3_1_07ustringC2ENS0_17basic_string_viewIcSt11char_traitsIcEEE.exit4, %40
  %43 = phi ptr [ %42, %40 ], [ null, %_ZN11OpenImageIO6v3_1_07ustringC2ENS0_17basic_string_viewIcSt11char_traitsIcEEE.exit4 ]
  call void @llvm.lifetime.end.p0(i64 16, ptr nonnull %12)
  %44 = load ptr, ptr %7, align 8, !tbaa !4
  %45 = getelementptr inbounds nuw i8, ptr %7, i64 8
  %46 = load i64, ptr %45, align 8, !tbaa !11
  call void @llvm.lifetime.start.p0(i64 16, ptr nonnull %11)
  %.not.i7 = icmp eq ptr %44, null
  br i1 %.not.i7, label %_ZN11OpenImageIO6v3_1_07ustringC2ENS0_17basic_string_viewIcSt11char_traitsIcEEE.exit8, label %47

47:                                               ; preds = %_ZN11OpenImageIO6v3_1_07ustringC2ENS0_17basic_string_viewIcSt11char_traitsIcEEE.exit6
  store ptr %44, ptr %11, align 8, !tbaa !4
  %48 = getelementptr inbounds nuw i8, ptr %11, i64 8
  store i64 %46, ptr %48, align 8, !tbaa !11
  %49 = call noundef ptr @_ZN11OpenImageIO6v3_1_07ustring11make_uniqueENS0_17basic_string_viewIcSt11char_traitsIcEEE(ptr noundef nonnull %11)
  %50 = ptrtoint ptr %49 to i64
  br label %_ZN11OpenImageIO6v3_1_07ustringC2ENS0_17basic_string_viewIcSt11char_traitsIcEEE.exit8

_ZN11OpenImageIO6v3_1_07ustringC2ENS0_17basic_string_viewIcSt11char_traitsIcEEE.exit8: ; preds = %_ZN11OpenImageIO6v3_1_07ustringC2ENS0_17basic_string_viewIcSt11char_traitsIcEEE.exit6, %47
  %51 = phi i64 [ %50, %47 ], [ 0, %_ZN11OpenImageIO6v3_1_07ustringC2ENS0_17basic_string_viewIcSt11char_traitsIcEEE.exit6 ]
  call void @llvm.lifetime.end.p0(i64 16, ptr nonnull %11)
  %52 = load ptr, ptr %8, align 8, !tbaa !4
  %53 = getelementptr inbounds nuw i8, ptr %8, i64 8
  %54 = load i64, ptr %53, align 8, !tbaa !11
  call void @llvm.lifetime.start.p0(i64 16, ptr nonnull %10)
  %.not.i9 = icmp eq ptr %52, null
  br i1 %.not.i9, label %_ZN11OpenImageIO6v3_1_07ustringC2ENS0_17basic_string_viewIcSt11char_traitsIcEEE.exit10, label %55

55:                                               ; preds = %_ZN11OpenImageIO6v3_1_07ustringC2ENS0_17basic_string_viewIcSt11char_traitsIcEEE.exit8
  store ptr %52, ptr %10, align 8, !tbaa !4
  %56 = getelementptr inbounds nuw i8, ptr %10, i64 8
  store i64 %54, ptr %56, align 8, !tbaa !11
  %57 = call noundef ptr @_ZN11OpenImageIO6v3_1_07ustring11make_uniqueENS0_17basic_string_viewIcSt11char_traitsIcEEE(ptr noundef nonnull %10)
  %58 = ptrtoint ptr %57 to i64
  br label %_ZN11OpenImageIO6v3_1_07ustringC2ENS0_17basic_string_viewIcSt11char_traitsIcEEE.exit10

_ZN11OpenImageIO6v3_1_07ustringC2ENS0_17basic_string_viewIcSt11char_traitsIcEEE.exit10: ; preds = %_ZN11OpenImageIO6v3_1_07ustringC2ENS0_17basic_string_viewIcSt11char_traitsIcEEE.exit8, %55
  %59 = phi i64 [ %58, %55 ], [ 0, %_ZN11OpenImageIO6v3_1_07ustringC2ENS0_17basic_string_viewIcSt11char_traitsIcEEE.exit8 ]
  call void @llvm.lifetime.end.p0(i64 16, ptr nonnull %10)
  call void @_ZNK11OpenImageIO6v3_1_011ColorConfig22createDisplayTransformENS0_7ustringES2_S2_S2_bS2_S2_(ptr dead_on_unwind writable sret(%"class.std::shared_ptr.20") align 8 %0, ptr noundef nonnull align 8 dereferenceable(8) %1, ptr %22, ptr %29, ptr %36, ptr %43, i1 noundef zeroext %6, i64 %51, i64 %59)
  ret void
}